LIBRARY 
EXPORTS
  ?Apps@api@galaxy@@YAPAVIApps@12@XZ @1
  ?Chat@api@galaxy@@YAPAVIChat@12@XZ @2
  ?CustomNetworking@api@galaxy@@YAPAVICustomNetworking@12@XZ @3
  ?Friends@api@galaxy@@YAPAVIFriends@12@XZ @4
  ?GameServerListenerRegistrar@api@galaxy@@YAPAVIListenerRegistrar@12@XZ @5
  ?GameServerLogger@api@galaxy@@YAPAVILogger@12@XZ @6
  ?GameServerMatchmaking@api@galaxy@@YAPAVIMatchmaking@12@XZ @7
  ?GameServerNetworking@api@galaxy@@YAPAVINetworking@12@XZ @8
  ?GameServerTelemetry@api@galaxy@@YAPAVITelemetry@12@XZ @9
  ?GameServerUser@api@galaxy@@YAPAVIUser@12@XZ @10
  ?GameServerUtils@api@galaxy@@YAPAVIUtils@12@XZ @11
  ?GetError@api@galaxy@@YAPBVIError@12@XZ @12
  ?Init@api@galaxy@@YAXABUInitOptions@12@@Z @13
  ?InitGameServer@api@galaxy@@YAXABUInitOptions@12@@Z @14
  ?ListenerRegistrar@api@galaxy@@YAPAVIListenerRegistrar@12@XZ @15
  ?Logger@api@galaxy@@YAPAVILogger@12@XZ @16
  ?Matchmaking@api@galaxy@@YAPAVIMatchmaking@12@XZ @17
  ?Networking@api@galaxy@@YAPAVINetworking@12@XZ @18
  ?ProcessData@api@galaxy@@YAXXZ @19
  ?ProcessGameServerData@api@galaxy@@YAXXZ @20
  ?Shutdown@api@galaxy@@YAXXZ @21
  ?ShutdownGameServer@api@galaxy@@YAXXZ @22
  ?Stats@api@galaxy@@YAPAVIStats@12@XZ @23
  ?Storage@api@galaxy@@YAPAVIStorage@12@XZ @24
  ?Telemetry@api@galaxy@@YAPAVITelemetry@12@XZ @25
  ?User@api@galaxy@@YAPAVIUser@12@XZ @26
  ?Utils@api@galaxy@@YAPAVIUtils@12@XZ @27
  load @28
